target datalayout = "e-m:e-p270:32:32-p271:32:32-p272:64:64-i64:64-i128:128-f80:128-n8:16:32:64-S128"
target triple = "x86_64-pc-linux-gnu"

%struct.Vec_Ptr_t_ = type { i32, i32, ptr }
%struct.Abc_Obj_t_ = type { ptr, ptr, i32, i32, %struct.Vec_Int_t_, %struct.Vec_Int_t_, %union.anon, %union.anon.0 }
%struct.Vec_Int_t_ = type { i32, i32, ptr }
%union.anon = type { ptr }
%union.anon.0 = type { ptr }
%struct.Abc_Ntk_t_ = type { i32, i32, ptr, ptr, ptr, ptr, ptr, ptr, ptr, ptr, ptr, ptr, ptr, [11 x i32], i32, i32, i32, i32, ptr, i32, ptr, ptr, i32, i32, i32, double, i32, %struct.Vec_Int_t_, ptr, ptr, ptr, ptr, ptr, float, i32, ptr, ptr, ptr, ptr, ptr, ptr, ptr, ptr, ptr, ptr, ptr, ptr, ptr, ptr, ptr, ptr, ptr, ptr, ptr, ptr, ptr, ptr }

@.str.2 = private unnamed_addr constant [2 x i8] c"\0A\00", align 1

; Function Attrs: inlinehint nounwind uwtable
define internal ptr @Abc_ObjFanin(ptr noundef %0, i32 noundef %1) #2 {
  %3 = alloca ptr, align 8
  %4 = alloca i32, align 4
  store ptr %0, ptr %3, align 8, !tbaa !3
  store i32 %1, ptr %4, align 4, !tbaa !8
  %5 = load ptr, ptr %3, align 8, !tbaa !3
  %6 = getelementptr inbounds nuw %struct.Abc_Obj_t_, ptr %5, i32 0, i32 0
  %7 = load ptr, ptr %6, align 8, !tbaa !22
  %8 = getelementptr inbounds nuw %struct.Abc_Ntk_t_, ptr %7, i32 0, i32 5
  %9 = load ptr, ptr %8, align 8, !tbaa !23
  %10 = getelementptr inbounds nuw %struct.Vec_Ptr_t_, ptr %9, i32 0, i32 2
  %11 = load ptr, ptr %10, align 8, !tbaa !36
  %12 = load ptr, ptr %3, align 8, !tbaa !3
  %13 = getelementptr inbounds nuw %struct.Abc_Obj_t_, ptr %12, i32 0, i32 4
  %14 = getelementptr inbounds nuw %struct.Vec_Int_t_, ptr %13, i32 0, i32 2
  %15 = load ptr, ptr %14, align 8, !tbaa !37
  %16 = load i32, ptr %4, align 4, !tbaa !8
  %17 = sext i32 %16 to i64
  %18 = getelementptr inbounds i32, ptr %15, i64 %17
  %19 = load i32, ptr %18, align 4, !tbaa !8
  %20 = sext i32 %19 to i64
  %21 = getelementptr inbounds ptr, ptr %11, i64 %20
  %22 = load ptr, ptr %21, align 8, !tbaa !38
  ret ptr %22
}

; Function Attrs: inlinehint nounwind uwtable
define internal i32 @Abc_ObjFaninNum(ptr noundef %0) #2 {
  %2 = alloca ptr, align 8
  store ptr %0, ptr %2, align 8, !tbaa !3
  %3 = load ptr, ptr %2, align 8, !tbaa !3
  %4 = getelementptr inbounds nuw %struct.Abc_Obj_t_, ptr %3, i32 0, i32 4
  %5 = getelementptr inbounds nuw %struct.Vec_Int_t_, ptr %4, i32 0, i32 1
  %6 = load i32, ptr %5, align 4, !tbaa !17
  ret i32 %6
}

; Function Attrs: inlinehint nounwind uwtable
define internal ptr @Abc_NtkCreateNode(ptr noundef %0) #2 {
  %2 = alloca ptr, align 8
  store ptr %0, ptr %2, align 8, !tbaa !41
  %3 = load ptr, ptr %2, align 8, !tbaa !41
  %4 = call ptr @Abc_NtkCreateObj(ptr noundef %3, i32 noundef 7)
  ret ptr %4
}

; Function Attrs: nounwind uwtable
define ptr @Abc_NtkCreateCofLut(ptr noundef %0, ptr noundef %1, ptr noundef %2, ptr noundef %3, i32 noundef %4) #0 {
  %6 = alloca ptr, align 8
  %7 = alloca ptr, align 8
  %8 = alloca ptr, align 8
  %9 = alloca ptr, align 8
  %10 = alloca i32, align 4
  %11 = alloca i32, align 4
  %12 = alloca ptr, align 8
  %13 = alloca ptr, align 8
  %14 = alloca i32, align 4
  store ptr %0, ptr %6, align 8, !tbaa !41
  store ptr %1, ptr %7, align 8, !tbaa !56
  store ptr %2, ptr %8, align 8, !tbaa !58
  store ptr %3, ptr %9, align 8, !tbaa !3
  store i32 %4, ptr %10, align 4, !tbaa !8
  call void @llvm.lifetime.start.p0(i64 4, ptr %11) #12
  store i32 0, ptr %11, align 4, !tbaa !8
  call void @llvm.lifetime.start.p0(i64 8, ptr %12) #12
  call void @llvm.lifetime.start.p0(i64 8, ptr %13) #12
  call void @llvm.lifetime.start.p0(i64 4, ptr %14) #12
  %15 = load ptr, ptr %6, align 8, !tbaa !41
  %16 = call ptr @Abc_NtkCreateNode(ptr noundef %15)
  store ptr %16, ptr %13, align 8, !tbaa !3
  %17 = load i32, ptr %10, align 4, !tbaa !8
  store i32 %17, ptr %14, align 4, !tbaa !8
  br label %18

18:                                               ; preds = %30, %5
  %19 = load i32, ptr %14, align 4, !tbaa !8
  %20 = load ptr, ptr %9, align 8, !tbaa !3
  %21 = call i32 @Abc_ObjFaninNum(ptr noundef %20)
  %22 = icmp slt i32 %19, %21
  br i1 %22, label %23, label %33

23:                                               ; preds = %18
  %24 = load ptr, ptr %13, align 8, !tbaa !3
  %25 = load ptr, ptr %9, align 8, !tbaa !3
  %26 = load i32, ptr %14, align 4, !tbaa !8
  %27 = call ptr @Abc_ObjFanin(ptr noundef %25, i32 noundef %26)
  %28 = getelementptr inbounds nuw %struct.Abc_Obj_t_, ptr %27, i32 0, i32 7
  %29 = load ptr, ptr %28, align 8, !tbaa !60
  call void @Abc_ObjAddFanin(ptr noundef %24, ptr noundef %29)
  br label %30

30:                                               ; preds = %23
  %31 = load i32, ptr %14, align 4, !tbaa !8
  %32 = add nsw i32 %31, 1
  store i32 %32, ptr %14, align 4, !tbaa !8
  br label %18, !llvm.loop !64

33:                                               ; preds = %18
  %34 = load i32, ptr %11, align 4, !tbaa !8
  %35 = icmp ne i32 %34, 0
  br i1 %35, label %36, label %41

36:                                               ; preds = %33
  %37 = load ptr, ptr %7, align 8, !tbaa !56
  %38 = load ptr, ptr %8, align 8, !tbaa !58
  call void @Extra_bddPrint(ptr noundef %37, ptr noundef %38)
  %39 = call i32 (ptr, ...) @printf(ptr noundef @.str.2)
  %40 = call i32 (ptr, ...) @printf(ptr noundef @.str.2)
  br label %41

41:                                               ; preds = %36, %33
  %42 = load ptr, ptr %7, align 8, !tbaa !56
  %43 = load ptr, ptr %8, align 8, !tbaa !58
  %44 = load i32, ptr %10, align 4, !tbaa !8
  %45 = sub nsw i32 0, %44
  %46 = call ptr @Extra_bddMove(ptr noundef %42, ptr noundef %43, i32 noundef %45)
  store ptr %46, ptr %12, align 8, !tbaa !58
  %47 = load ptr, ptr %12, align 8, !tbaa !58
  call void @Cudd_Ref(ptr noundef %47)
  %48 = load i32, ptr %11, align 4, !tbaa !8
  %49 = icmp ne i32 %48, 0
  br i1 %49, label %50, label %55

50:                                               ; preds = %41
  %51 = load ptr, ptr %7, align 8, !tbaa !56
  %52 = load ptr, ptr %12, align 8, !tbaa !58
  call void @Extra_bddPrint(ptr noundef %51, ptr noundef %52)
  %53 = call i32 (ptr, ...) @printf(ptr noundef @.str.2)
  %54 = call i32 (ptr, ...) @printf(ptr noundef @.str.2)
  br label %55

55:                                               ; preds = %50, %41
  %56 = load ptr, ptr %7, align 8, !tbaa !56
  %57 = load ptr, ptr %6, align 8, !tbaa !41
  %58 = getelementptr inbounds nuw %struct.Abc_Ntk_t_, ptr %57, i32 0, i32 30
  %59 = load ptr, ptr %58, align 8, !tbaa !55
  %60 = load ptr, ptr %12, align 8, !tbaa !58
  %61 = call ptr @Extra_TransferLevelByLevel(ptr noundef %56, ptr noundef %59, ptr noundef %60)
  %62 = load ptr, ptr %13, align 8, !tbaa !3
  %63 = getelementptr inbounds nuw %struct.Abc_Obj_t_, ptr %62, i32 0, i32 6
  store ptr %61, ptr %63, align 8, !tbaa !60
  %64 = load ptr, ptr %13, align 8, !tbaa !3
  %65 = getelementptr inbounds nuw %struct.Abc_Obj_t_, ptr %64, i32 0, i32 6
  %66 = load ptr, ptr %65, align 8, !tbaa !60
  call void @Cudd_Ref(ptr noundef %66)
  %67 = load ptr, ptr %7, align 8, !tbaa !56
  %68 = load ptr, ptr %12, align 8, !tbaa !58
  call void @Cudd_RecursiveDeref(ptr noundef %67, ptr noundef %68)
  %69 = load ptr, ptr %13, align 8, !tbaa !3
  call void @llvm.lifetime.end.p0(i64 4, ptr %14) #12
  call void @llvm.lifetime.end.p0(i64 8, ptr %13) #12
  call void @llvm.lifetime.end.p0(i64 8, ptr %12) #12
  call void @llvm.lifetime.end.p0(i64 4, ptr %11) #12
  ret ptr %69
}