; Function Attrs: nounwind uwtable
define ptr @Abc_NtkCreateCofLut(ptr noundef %0, ptr noundef %1, ptr noundef %2, ptr noundef readonly captures(none) %3, i32 noundef %4) local_unnamed_addr #0 {
  %6 = tail call ptr @Abc_NtkCreateObj(ptr noundef %0, i32 noundef 7) #20
  %7 = getelementptr i8, ptr %3, i64 28
  %.val27 = load i32, ptr %7, align 4, !tbaa !9
  %8 = icmp slt i32 %4, %.val27
  br i1 %8, label %.lr.ph, label %._crit_edge

.lr.ph:                                           ; preds = %5
  %9 = getelementptr i8, ptr %3, i64 32
  %10 = sext i32 %4 to i64
  br label %11

11:                                               ; preds = %.lr.ph, %11
  %indvars.iv = phi i64 [ %10, %.lr.ph ], [ %indvars.iv.next, %11 ]
  %.val25 = load ptr, ptr %3, align 8, !tbaa !15
  %.val26 = load ptr, ptr %9, align 8, !tbaa !16
  %12 = getelementptr i8, ptr %.val25, i64 32
  %.val25.val = load ptr, ptr %12, align 8, !tbaa !17
  %13 = getelementptr i8, ptr %.val25.val, i64 8
  %.val25.val.val = load ptr, ptr %13, align 8, !tbaa !31
  %14 = getelementptr inbounds i32, ptr %.val26, i64 %indvars.iv
  %15 = load i32, ptr %14, align 4, !tbaa !32
  %16 = sext i32 %15 to i64
  %17 = getelementptr inbounds ptr, ptr %.val25.val.val, i64 %16
  %18 = load ptr, ptr %17, align 8, !tbaa !33
  %19 = getelementptr inbounds nuw i8, ptr %18, i64 64
  %20 = load ptr, ptr %19, align 8, !tbaa !50
  tail call void @Abc_ObjAddFanin(ptr noundef %6, ptr noundef %20) #20
  %indvars.iv.next = add nsw i64 %indvars.iv, 1
  %.val = load i32, ptr %7, align 4, !tbaa !9
  %21 = sext i32 %.val to i64
  %22 = icmp slt i64 %indvars.iv.next, %21
  br i1 %22, label %11, label %._crit_edge, !llvm.loop !55

._crit_edge:                                      ; preds = %11, %5
  %23 = sub nsw i32 0, %4
  %24 = tail call ptr @Extra_bddMove(ptr noundef %1, ptr noundef %2, i32 noundef %23) #20
  tail call void @Cudd_Ref(ptr noundef %24) #20
  %25 = getelementptr inbounds nuw i8, ptr %0, i64 256
  %26 = load ptr, ptr %25, align 8, !tbaa !48
  %27 = tail call ptr @Extra_TransferLevelByLevel(ptr noundef %1, ptr noundef %26, ptr noundef %24) #20
  %28 = getelementptr inbounds nuw i8, ptr %6, i64 56
  store ptr %27, ptr %28, align 8, !tbaa !50
  tail call void @Cudd_Ref(ptr noundef %27) #20
  tail call void @Cudd_RecursiveDeref(ptr noundef %1, ptr noundef %24) #20
  ret ptr %6
}